target datalayout = "e-m:e-p270:32:32-p271:32:32-p272:64:64-i64:64-i128:128-f80:128-n8:16:32:64-S128"
target triple = "x86_64-pc-linux-gnu"

%struct.ancp_tap_t = type { i32, i32 }

@st_str_packets = internal global ptr @.str.216, align 8
@st_node_packet_types = internal global i32 -1, align 4
@.str.214 = private unnamed_addr constant [25 x i8] c"Unknown packet type (%d)\00", align 1
@st_node_adj_pack_types = internal global i32 -1, align 4
@.str.215 = private unnamed_addr constant [30 x i8] c"Unknown Adjacency packet (%d)\00", align 1

; Function Attrs: null_pointer_is_valid sspstrong uwtable
define internal i32 @ancp_stats_tree_packet(ptr noundef %0, ptr noundef %1, ptr noundef %2, ptr noundef %3, i32 noundef %4) #0 {
  %6 = alloca ptr, align 8
  %7 = alloca ptr, align 8
  %8 = alloca ptr, align 8
  %9 = alloca ptr, align 8
  %10 = alloca i32, align 4
  %11 = alloca ptr, align 8
  store ptr %0, ptr %6, align 8
  store ptr %1, ptr %7, align 8
  store ptr %2, ptr %8, align 8
  store ptr %3, ptr %9, align 8
  store i32 %4, ptr %10, align 4
  call void @llvm.lifetime.start.p0(i64 8, ptr %11) #4
  %12 = load ptr, ptr %9, align 8
  store ptr %12, ptr %11, align 8
  %13 = load ptr, ptr %6, align 8
  %14 = load ptr, ptr @st_str_packets, align 8
  %15 = call i32 @stats_tree_manip_node_int(i32 noundef 0, ptr noundef %13, ptr noundef %14, i32 noundef 0, i1 noundef zeroext false, i32 noundef 1)
  %16 = load ptr, ptr %6, align 8
  %17 = load i32, ptr @st_node_packet_types, align 4
  %18 = load ptr, ptr %11, align 8
  %19 = getelementptr inbounds nuw %struct.ancp_tap_t, ptr %18, i32 0, i32 0
  %20 = load i32, ptr %19, align 4
  %21 = call ptr @val_to_str(i32 noundef %20, ptr noundef @mtype_names, ptr noundef @.str.214)
  %22 = call i32 @stats_tree_tick_pivot(ptr noundef %16, i32 noundef %17, ptr noundef %21)
  %23 = load ptr, ptr %11, align 8
  %24 = getelementptr inbounds nuw %struct.ancp_tap_t, ptr %23, i32 0, i32 0
  %25 = load i32, ptr %24, align 4
  %26 = icmp eq i32 %25, 10
  br i1 %26, label %27, label %35

27:                                               ; preds = %5
  %28 = load ptr, ptr %6, align 8
  %29 = load i32, ptr @st_node_adj_pack_types, align 4
  %30 = load ptr, ptr %11, align 8
  %31 = getelementptr inbounds nuw %struct.ancp_tap_t, ptr %30, i32 0, i32 1
  %32 = load i32, ptr %31, align 4
  %33 = call ptr @val_to_str(i32 noundef %32, ptr noundef @adj_code_names, ptr noundef @.str.215)
  %34 = call i32 @stats_tree_tick_pivot(ptr noundef %28, i32 noundef %29, ptr noundef %33)
  br label %35

35:                                               ; preds = %27, %5
  call void @llvm.lifetime.end.p0(i64 8, ptr %11) #4
  ret i32 1
}