; Function Attrs: null_pointer_is_valid sspstrong uwtable
define internal noundef i32 @ancp_stats_tree_packet(ptr noundef %0, ptr readnone captures(none) %1, ptr readnone captures(none) %2, ptr noundef readonly captures(none) %3, i32 %4) #0 {
  %6 = tail call i32 @stats_tree_manip_node_int(i32 noundef 0, ptr noundef %0, ptr noundef nonnull @.str.216, i32 noundef 0, i1 noundef zeroext false, i32 noundef 1)
  %7 = load i32, ptr @st_node_packet_types, align 4
  %8 = load i32, ptr %3, align 4
  %9 = tail call ptr @val_to_str(i32 noundef %8, ptr noundef nonnull @mtype_names, ptr noundef nonnull @.str.214)
  %10 = tail call i32 @stats_tree_tick_pivot(ptr noundef %0, i32 noundef %7, ptr noundef %9)
  %11 = load i32, ptr %3, align 4
  %12 = icmp eq i32 %11, 10
  br i1 %12, label %13, label %19

13:                                               ; preds = %5
  %14 = load i32, ptr @st_node_adj_pack_types, align 4
  %15 = getelementptr inbounds nuw i8, ptr %3, i64 4
  %16 = load i32, ptr %15, align 4
  %17 = tail call ptr @val_to_str(i32 noundef %16, ptr noundef nonnull @adj_code_names, ptr noundef nonnull @.str.215)
  %18 = tail call i32 @stats_tree_tick_pivot(ptr noundef %0, i32 noundef %14, ptr noundef %17)
  br label %19

19:                                               ; preds = %13, %5
  ret i32 1
}